target datalayout = "e-m:e-p270:32:32-p271:32:32-p272:64:64-i64:64-i128:128-f80:128-n8:16:32:64-S128"
target triple = "x86_64-pc-linux-gnu"

%struct.FunctionCallInfoBaseData = type { ptr, ptr, ptr, i32, i8, i16, [0 x %struct.NullableDatum] }
%struct.NullableDatum = type { i64, i8 }

; Function Attrs: inlinehint nounwind uwtable
define internal i64 @UInt32GetDatum(i32 noundef %0) #1 {
  %2 = alloca i32, align 4
  store i32 %0, ptr %2, align 4
  %3 = load i32, ptr %2, align 4
  %4 = zext i32 %3 to i64
  ret i64 %4
}

; Function Attrs: inlinehint nounwind uwtable
define internal i64 @hash_uint32(i32 noundef %0) #1 {
  %2 = alloca i32, align 4
  store i32 %0, ptr %2, align 4
  %3 = load i32, ptr %2, align 4
  %4 = call i32 @hash_bytes_uint32(i32 noundef %3)
  %5 = call i64 @UInt32GetDatum(i32 noundef %4)
  ret i64 %5
}

; Function Attrs: inlinehint nounwind uwtable
define internal signext i8 @DatumGetChar(i64 noundef %0) #1 {
  %2 = alloca i64, align 8
  store i64 %0, ptr %2, align 8
  %3 = load i64, ptr %2, align 8
  %4 = trunc i64 %3 to i8
  ret i8 %4
}

; Function Attrs: nounwind uwtable
define dso_local i64 @hashchar(ptr noundef %0) #0 {
  %2 = alloca ptr, align 8
  store ptr %0, ptr %2, align 8
  %3 = load ptr, ptr %2, align 8
  %4 = getelementptr inbounds nuw %struct.FunctionCallInfoBaseData, ptr %3, i32 0, i32 6
  %5 = getelementptr inbounds [0 x %struct.NullableDatum], ptr %4, i64 0, i64 0
  %6 = getelementptr inbounds nuw %struct.NullableDatum, ptr %5, i32 0, i32 0
  %7 = load i64, ptr %6, align 8
  %8 = call signext i8 @DatumGetChar(i64 noundef %7)
  %9 = sext i8 %8 to i32
  %10 = call i64 @hash_uint32(i32 noundef %9)
  ret i64 %10
}