; Function Attrs: nounwind uwtable
define dso_local range(i64 0, 4294967296) i64 @hashchar(ptr noundef readonly captures(none) %0) local_unnamed_addr #0 {
  %2 = getelementptr inbounds nuw i8, ptr %0, i64 32
  %3 = load i64, ptr %2, align 8
  %4 = trunc i64 %3 to i32
  %sext = shl i32 %4, 24
  %5 = ashr exact i32 %sext, 24
  %6 = tail call i32 @hash_bytes_uint32(i32 noundef %5) #6
  %7 = zext i32 %6 to i64
  ret i64 %7
}